target datalayout = "e-m:e-p270:32:32-p271:32:32-p272:64:64-i64:64-i128:128-f80:128-n8:16:32:64-S128"
target triple = "x86_64-unknown-linux-gnu"

%"struct.icu_75::RegularExpression" = type <{ i32, [4 x i8], ptr, ptr, ptr, i32, [4 x i8], ptr, ptr, i32, i8, [3 x i8] }>

; Function Attrs: mustprogress nounwind uwtable
define void @_ZN6icu_7517RegularExpressionC2Ev(ptr noundef nonnull align 8 dereferenceable(61) %this) unnamed_addr #0 align 2 {
entry:
  %this.addr = alloca ptr, align 8
  store ptr %this, ptr %this.addr, align 8
  %this1 = load ptr, ptr %this.addr, align 8
  %fMagic = getelementptr inbounds %"struct.icu_75::RegularExpression", ptr %this1, i32 0, i32 0
  store i32 1919252592, ptr %fMagic, align 8
  %fPat = getelementptr inbounds %"struct.icu_75::RegularExpression", ptr %this1, i32 0, i32 2
  store ptr null, ptr %fPat, align 8
  %fPatRefCount = getelementptr inbounds %"struct.icu_75::RegularExpression", ptr %this1, i32 0, i32 3
  store ptr null, ptr %fPatRefCount, align 8
  %fPatString = getelementptr inbounds %"struct.icu_75::RegularExpression", ptr %this1, i32 0, i32 4
  store ptr null, ptr %fPatString, align 8
  %fPatStringLen = getelementptr inbounds %"struct.icu_75::RegularExpression", ptr %this1, i32 0, i32 5
  store i32 0, ptr %fPatStringLen, align 8
  %fMatcher = getelementptr inbounds %"struct.icu_75::RegularExpression", ptr %this1, i32 0, i32 7
  store ptr null, ptr %fMatcher, align 8
  %fText = getelementptr inbounds %"struct.icu_75::RegularExpression", ptr %this1, i32 0, i32 8
  store ptr null, ptr %fText, align 8
  %fTextLength = getelementptr inbounds %"struct.icu_75::RegularExpression", ptr %this1, i32 0, i32 9
  store i32 0, ptr %fTextLength, align 8
  %fOwnsText = getelementptr inbounds %"struct.icu_75::RegularExpression", ptr %this1, i32 0, i32 10
  store i8 0, ptr %fOwnsText, align 4
  ret void
}