; Function Attrs: mustprogress nofree norecurse nosync nounwind willreturn memory(argmem: write) uwtable
define void @_ZN6icu_7517RegularExpressionC2Ev(ptr nocapture noundef nonnull writeonly align 8 dereferenceable(61) %this) unnamed_addr #0 align 2 {
entry:
  store i32 1919252592, ptr %this, align 8
  %fPat = getelementptr inbounds i8, ptr %this, i64 8
  %fMatcher = getelementptr inbounds i8, ptr %this, i64 40
  tail call void @llvm.memset.p0.i64(ptr noundef nonnull align 8 dereferenceable(28) %fPat, i8 0, i64 28, i1 false)
  tail call void @llvm.memset.p0.i64(ptr noundef nonnull align 8 dereferenceable(21) %fMatcher, i8 0, i64 21, i1 false)
  ret void
}